target datalayout = "e-m:e-p270:32:32-p271:32:32-p272:64:64-i64:64-i128:128-f80:128-n8:16:32:64-S128"
target triple = "x86_64-pc-linux-gnu"

; Function Attrs: mustprogress nounwind uwtable
define dso_local noundef i32 @_ZN4Luau7Compile11computeCostEmPKbm(i64 noundef %0, ptr noundef %1, i64 noundef %2) #4 {
  %4 = alloca i32, align 4
  %5 = alloca i64, align 8
  %6 = alloca ptr, align 8
  %7 = alloca i64, align 8
  %8 = alloca i32, align 4
  %9 = alloca i32, align 4
  %10 = alloca i64, align 8
  store i64 %0, ptr %5, align 8, !tbaa !14
  store ptr %1, ptr %6, align 8, !tbaa !37
  store i64 %2, ptr %7, align 8, !tbaa !14
  call void @llvm.lifetime.start.p0(i64 4, ptr %8) #10
  %11 = load i64, ptr %5, align 8, !tbaa !14
  %12 = and i64 %11, 127
  %13 = trunc i64 %12 to i32
  store i32 %13, ptr %8, align 4, !tbaa !4
  %14 = load i32, ptr %8, align 4, !tbaa !4
  %15 = icmp eq i32 %14, 127
  br i1 %15, label %16, label %18

16:                                               ; preds = %3
  %17 = load i32, ptr %8, align 4, !tbaa !4
  store i32 %17, ptr %4, align 4
  store i32 1, ptr %9, align 4
  br label %51

18:                                               ; preds = %3
  call void @llvm.lifetime.start.p0(i64 8, ptr %10) #10
  store i64 0, ptr %10, align 8, !tbaa !14
  br label %19

19:                                               ; preds = %46, %18
  %20 = load i64, ptr %10, align 8, !tbaa !14
  %21 = load i64, ptr %7, align 8, !tbaa !14
  %22 = icmp ult i64 %20, %21
  br i1 %22, label %23, label %26

23:                                               ; preds = %19
  %24 = load i64, ptr %10, align 8, !tbaa !14
  %25 = icmp ult i64 %24, 7
  br label %26

26:                                               ; preds = %23, %19
  %27 = phi i1 [ false, %19 ], [ %25, %23 ]
  br i1 %27, label %29, label %28

28:                                               ; preds = %26
  store i32 2, ptr %9, align 4
  call void @llvm.lifetime.end.p0(i64 8, ptr %10) #10
  br label %49

29:                                               ; preds = %26
  %30 = load i64, ptr %5, align 8, !tbaa !14
  %31 = load i64, ptr %10, align 8, !tbaa !14
  %32 = mul i64 %31, 8
  %33 = add i64 %32, 8
  %34 = lshr i64 %30, %33
  %35 = and i64 %34, 127
  %36 = trunc i64 %35 to i32
  %37 = load ptr, ptr %6, align 8, !tbaa !37
  %38 = load i64, ptr %10, align 8, !tbaa !14
  %39 = getelementptr inbounds nuw i8, ptr %37, i64 %38
  %40 = load i8, ptr %39, align 1, !tbaa !39, !range !41, !noundef !42
  %41 = trunc i8 %40 to i1
  %42 = zext i1 %41 to i32
  %43 = mul nsw i32 %36, %42
  %44 = load i32, ptr %8, align 4, !tbaa !4
  %45 = sub nsw i32 %44, %43
  store i32 %45, ptr %8, align 4, !tbaa !4
  br label %46

46:                                               ; preds = %29
  %47 = load i64, ptr %10, align 8, !tbaa !14
  %48 = add i64 %47, 1
  store i64 %48, ptr %10, align 8, !tbaa !14
  br label %19, !llvm.loop !43

49:                                               ; preds = %28
  %50 = load i32, ptr %8, align 4, !tbaa !4
  store i32 %50, ptr %4, align 4
  store i32 1, ptr %9, align 4
  br label %51

51:                                               ; preds = %49, %16
  call void @llvm.lifetime.end.p0(i64 4, ptr %8) #10
  %52 = load i32, ptr %4, align 4
  ret i32 %52
}