; Function Attrs: mustprogress nofree norecurse nosync nounwind willreturn memory(argmem: read) uwtable
define dso_local noundef i32 @_ZN4Luau7Compile11computeCostEmPKbm(i64 noundef %0, ptr noundef readonly captures(none) %1, i64 noundef %2) local_unnamed_addr #4 {
  %4 = trunc i64 %0 to i32
  %5 = and i32 %4, 127
  %6 = icmp eq i32 %5, 127
  br i1 %6, label %.loopexit, label %.preheader

.preheader:                                       ; preds = %3
  %invariant.umin = tail call i64 @llvm.umin.i64(i64 %2, i64 7)
  %.not = icmp eq i64 %2, 0
  br i1 %.not, label %.loopexit, label %.lr.ph

.lr.ph:                                           ; preds = %.preheader, %.lr.ph
  %.017 = phi i64 [ %17, %.lr.ph ], [ 0, %.preheader ]
  %.01316 = phi i32 [ %16, %.lr.ph ], [ %5, %.preheader ]
  %7 = shl nuw nsw i64 %.017, 3
  %8 = add nuw nsw i64 %7, 8
  %9 = lshr i64 %0, %8
  %10 = trunc i64 %9 to i32
  %11 = and i32 %10, 127
  %12 = getelementptr inbounds nuw i8, ptr %1, i64 %.017
  %13 = load i8, ptr %12, align 1, !tbaa !34, !range !36, !noundef !37
  %14 = zext nneg i8 %13 to i32
  %15 = mul nuw nsw i32 %11, %14
  %16 = sub nsw i32 %.01316, %15
  %17 = add nuw nsw i64 %.017, 1
  %exitcond.not = icmp eq i64 %17, %invariant.umin
  br i1 %exitcond.not, label %.loopexit, label %.lr.ph, !llvm.loop !38

.loopexit:                                        ; preds = %.lr.ph, %.preheader, %3
  %.014 = phi i32 [ 127, %3 ], [ %5, %.preheader ], [ %16, %.lr.ph ]
  ret i32 %.014
}